target datalayout = "e-m:e-p270:32:32-p271:32:32-p272:64:64-i64:64-i128:128-f80:128-n8:16:32:64-S128"
target triple = "x86_64-pc-linux-gnu"

%"class.folly::Range" = type { ptr, ptr }
%"class.folly::symbolizer::Path" = type { %"class.folly::Range", %"class.folly::Range", %"class.folly::Range" }

; Function Attrs: inlinehint mustprogress nounwind uwtable
define linkonce_odr void @_ZSt9__advanceIPKclEvRT_T0_St26random_access_iterator_tag(ptr noundef nonnull align 8 dereferenceable(8) %0, i64 noundef %1) #3 comdat {
  %3 = alloca ptr, align 8
  %4 = alloca i64, align 8
  store ptr %0, ptr %3, align 8, !tbaa !23
  store i64 %1, ptr %4, align 8, !tbaa !21
  %5 = load i64, ptr %4, align 8, !tbaa !21
  %6 = call i1 @llvm.is.constant.i64(i64 %5)
  br i1 %6, label %7, label %14

7:                                                ; preds = %2
  %8 = load i64, ptr %4, align 8, !tbaa !21
  %9 = icmp eq i64 %8, 1
  br i1 %9, label %10, label %14

10:                                               ; preds = %7
  %11 = load ptr, ptr %3, align 8, !tbaa !23
  %12 = load ptr, ptr %11, align 8, !tbaa !13
  %13 = getelementptr inbounds nuw i8, ptr %12, i32 1
  store ptr %13, ptr %11, align 8, !tbaa !13
  br label %30

14:                                               ; preds = %7, %2
  %15 = load i64, ptr %4, align 8, !tbaa !21
  %16 = call i1 @llvm.is.constant.i64(i64 %15)
  br i1 %16, label %17, label %24

17:                                               ; preds = %14
  %18 = load i64, ptr %4, align 8, !tbaa !21
  %19 = icmp eq i64 %18, -1
  br i1 %19, label %20, label %24

20:                                               ; preds = %17
  %21 = load ptr, ptr %3, align 8, !tbaa !23
  %22 = load ptr, ptr %21, align 8, !tbaa !13
  %23 = getelementptr inbounds i8, ptr %22, i32 -1
  store ptr %23, ptr %21, align 8, !tbaa !13
  br label %29

24:                                               ; preds = %17, %14
  %25 = load i64, ptr %4, align 8, !tbaa !21
  %26 = load ptr, ptr %3, align 8, !tbaa !23
  %27 = load ptr, ptr %26, align 8, !tbaa !13
  %28 = getelementptr inbounds i8, ptr %27, i64 %25
  store ptr %28, ptr %26, align 8, !tbaa !13
  br label %29

29:                                               ; preds = %24, %20
  br label %30

30:                                               ; preds = %29, %10
  ret void
}

; Function Attrs: inlinehint mustprogress nounwind uwtable
define linkonce_odr void @_ZSt19__iterator_categoryIPKcENSt15iterator_traitsIT_E17iterator_categoryERKS3_(ptr noundef nonnull align 8 dereferenceable(8) %0) #3 comdat {
  %2 = alloca ptr, align 8
  store ptr %0, ptr %2, align 8, !tbaa !23
  ret void
}

; Function Attrs: inlinehint mustprogress uwtable
define linkonce_odr void @_ZSt7advanceIPKclEvRT_T0_(ptr noundef nonnull align 8 dereferenceable(8) %0, i64 noundef %1) #5 comdat {
  %3 = alloca ptr, align 8
  %4 = alloca i64, align 8
  %5 = alloca i64, align 8
  store ptr %0, ptr %3, align 8, !tbaa !23
  store i64 %1, ptr %4, align 8, !tbaa !21
  call void @llvm.lifetime.start.p0(i64 8, ptr %5) #11
  %6 = load i64, ptr %4, align 8, !tbaa !21
  store i64 %6, ptr %5, align 8, !tbaa !21
  %7 = load ptr, ptr %3, align 8, !tbaa !23
  %8 = load i64, ptr %5, align 8, !tbaa !21
  %9 = load ptr, ptr %3, align 8, !tbaa !23
  call void @_ZSt19__iterator_categoryIPKcENSt15iterator_traitsIT_E17iterator_categoryERKS3_(ptr noundef nonnull align 8 dereferenceable(8) %9)
  call void @_ZSt9__advanceIPKclEvRT_T0_St26random_access_iterator_tag(ptr noundef nonnull align 8 dereferenceable(8) %7, i64 noundef %8)
  call void @llvm.lifetime.end.p0(i64 8, ptr %5) #11
  ret void
}

; Function Attrs: inlinehint mustprogress uwtable
define linkonce_odr noundef ptr @_ZSt4prevIPKcET_S2_NSt15iterator_traitsIS2_E15difference_typeE(ptr noundef %0, i64 noundef %1) #5 comdat {
  %3 = alloca ptr, align 8
  %4 = alloca i64, align 8
  store ptr %0, ptr %3, align 8, !tbaa !13
  store i64 %1, ptr %4, align 8, !tbaa !21
  %5 = load i64, ptr %4, align 8, !tbaa !21
  %6 = sub nsw i64 0, %5
  call void @_ZSt7advanceIPKclEvRT_T0_(ptr noundef nonnull align 8 dereferenceable(8) %3, i64 noundef %6)
  %7 = load ptr, ptr %3, align 8, !tbaa !13
  ret ptr %7
}

; Function Attrs: mustprogress uwtable
define linkonce_odr noundef nonnull align 1 dereferenceable(1) ptr @_ZNK5folly5RangeIPKcE4backEv(ptr noundef nonnull align 8 dereferenceable(16) %0) #0 comdat align 2 {
  %2 = alloca ptr, align 8
  store ptr %0, ptr %2, align 8, !tbaa !16
  %3 = load ptr, ptr %2, align 8
  %4 = getelementptr inbounds nuw %"class.folly::Range", ptr %3, i32 0, i32 1
  %5 = load ptr, ptr %4, align 8, !tbaa !20
  %6 = call noundef ptr @_ZSt4prevIPKcET_S2_NSt15iterator_traitsIS2_E15difference_typeE(ptr noundef %5, i64 noundef 1)
  ret ptr %6
}

; Function Attrs: mustprogress uwtable
define linkonce_odr noundef zeroext i1 @_ZNK5folly5RangeIPKcE8endsWithERS1_(ptr noundef nonnull align 8 dereferenceable(16) %0, ptr noundef nonnull align 1 dereferenceable(1) %1) #0 comdat align 2 {
  %3 = alloca ptr, align 8
  %4 = alloca ptr, align 8
  store ptr %0, ptr %3, align 8, !tbaa !16
  store ptr %1, ptr %4, align 8, !tbaa !13
  %5 = load ptr, ptr %3, align 8
  %6 = call noundef zeroext i1 @_ZNK5folly5RangeIPKcE5emptyEv(ptr noundef nonnull align 8 dereferenceable(16) %5)
  br i1 %6, label %15, label %7

7:                                                ; preds = %2
  %8 = call noundef nonnull align 1 dereferenceable(1) ptr @_ZNK5folly5RangeIPKcE4backEv(ptr noundef nonnull align 8 dereferenceable(16) %5)
  %9 = load i8, ptr %8, align 1, !tbaa !15
  %10 = sext i8 %9 to i32
  %11 = load ptr, ptr %4, align 8, !tbaa !13
  %12 = load i8, ptr %11, align 1, !tbaa !15
  %13 = sext i8 %12 to i32
  %14 = icmp eq i32 %10, %13
  br label %15

15:                                               ; preds = %7, %2
  %16 = phi i1 [ false, %2 ], [ %14, %7 ]
  ret i1 %16
}

; Function Attrs: mustprogress nounwind uwtable
define linkonce_odr noundef i64 @_ZNK5folly5RangeIPKcE4sizeEv(ptr noundef nonnull align 8 dereferenceable(16) %0) #2 comdat align 2 {
  %2 = alloca ptr, align 8
  store ptr %0, ptr %2, align 8, !tbaa !16
  %3 = load ptr, ptr %2, align 8
  %4 = getelementptr inbounds nuw %"class.folly::Range", ptr %3, i32 0, i32 1
  %5 = load ptr, ptr %4, align 8, !tbaa !20
  %6 = getelementptr inbounds nuw %"class.folly::Range", ptr %3, i32 0, i32 0
  %7 = load ptr, ptr %6, align 8, !tbaa !18
  %8 = ptrtoint ptr %5 to i64
  %9 = ptrtoint ptr %7 to i64
  %10 = sub i64 %8, %9
  ret i64 %10
}

; Function Attrs: mustprogress nounwind uwtable
define linkonce_odr noundef zeroext i1 @_ZNK5folly5RangeIPKcE5emptyEv(ptr noundef nonnull align 8 dereferenceable(16) %0) #2 comdat align 2 {
  %2 = alloca ptr, align 8
  store ptr %0, ptr %2, align 8, !tbaa !16
  %3 = load ptr, ptr %2, align 8
  %4 = getelementptr inbounds nuw %"class.folly::Range", ptr %3, i32 0, i32 0
  %5 = load ptr, ptr %4, align 8, !tbaa !18
  %6 = getelementptr inbounds nuw %"class.folly::Range", ptr %3, i32 0, i32 1
  %7 = load ptr, ptr %6, align 8, !tbaa !20
  %8 = icmp eq ptr %5, %7
  ret i1 %8
}

; Function Attrs: mustprogress uwtable
define noundef i64 @_ZNK5folly10symbolizer4Path4sizeEv(ptr noundef nonnull align 8 dereferenceable(48) %0) #0 align 2 {
  %2 = alloca ptr, align 8
  %3 = alloca i64, align 8
  %4 = alloca i8, align 1
  %5 = alloca i8, align 1
  %6 = alloca i8, align 1
  store ptr %0, ptr %2, align 8, !tbaa !7
  %7 = load ptr, ptr %2, align 8
  call void @llvm.lifetime.start.p0(i64 8, ptr %3) #11
  store i64 0, ptr %3, align 8, !tbaa !21
  call void @llvm.lifetime.start.p0(i64 1, ptr %4) #11
  store i8 0, ptr %4, align 1, !tbaa !25
  %8 = getelementptr inbounds nuw %"class.folly::symbolizer::Path", ptr %7, i32 0, i32 0
  %9 = call noundef zeroext i1 @_ZNK5folly5RangeIPKcE5emptyEv(ptr noundef nonnull align 8 dereferenceable(16) %8)
  br i1 %9, label %19, label %10

10:                                               ; preds = %1
  %11 = getelementptr inbounds nuw %"class.folly::symbolizer::Path", ptr %7, i32 0, i32 0
  %12 = call noundef i64 @_ZNK5folly5RangeIPKcE4sizeEv(ptr noundef nonnull align 8 dereferenceable(16) %11)
  %13 = load i64, ptr %3, align 8, !tbaa !21
  %14 = add i64 %13, %12
  store i64 %14, ptr %3, align 8, !tbaa !21
  %15 = getelementptr inbounds nuw %"class.folly::symbolizer::Path", ptr %7, i32 0, i32 0
  call void @llvm.lifetime.start.p0(i64 1, ptr %5) #11
  store i8 47, ptr %5, align 1, !tbaa !15
  %16 = call noundef zeroext i1 @_ZNK5folly5RangeIPKcE8endsWithERS1_(ptr noundef nonnull align 8 dereferenceable(16) %15, ptr noundef nonnull align 1 dereferenceable(1) %5)
  %17 = xor i1 %16, true
  %18 = zext i1 %17 to i8
  store i8 %18, ptr %4, align 1, !tbaa !25
  call void @llvm.lifetime.end.p0(i64 1, ptr %5) #11
  br label %19

19:                                               ; preds = %10, %1
  %20 = getelementptr inbounds nuw %"class.folly::symbolizer::Path", ptr %7, i32 0, i32 1
  %21 = call noundef zeroext i1 @_ZNK5folly5RangeIPKcE5emptyEv(ptr noundef nonnull align 8 dereferenceable(16) %20)
  br i1 %21, label %36, label %22

22:                                               ; preds = %19
  %23 = load i8, ptr %4, align 1, !tbaa !25, !range !27, !noundef !28
  %24 = trunc i8 %23 to i1
  %25 = zext i1 %24 to i64
  %26 = load i64, ptr %3, align 8, !tbaa !21
  %27 = add i64 %26, %25
  store i64 %27, ptr %3, align 8, !tbaa !21
  %28 = getelementptr inbounds nuw %"class.folly::symbolizer::Path", ptr %7, i32 0, i32 1
  %29 = call noundef i64 @_ZNK5folly5RangeIPKcE4sizeEv(ptr noundef nonnull align 8 dereferenceable(16) %28)
  %30 = load i64, ptr %3, align 8, !tbaa !21
  %31 = add i64 %30, %29
  store i64 %31, ptr %3, align 8, !tbaa !21
  %32 = getelementptr inbounds nuw %"class.folly::symbolizer::Path", ptr %7, i32 0, i32 1
  call void @llvm.lifetime.start.p0(i64 1, ptr %6) #11
  store i8 47, ptr %6, align 1, !tbaa !15
  %33 = call noundef zeroext i1 @_ZNK5folly5RangeIPKcE8endsWithERS1_(ptr noundef nonnull align 8 dereferenceable(16) %32, ptr noundef nonnull align 1 dereferenceable(1) %6)
  %34 = xor i1 %33, true
  %35 = zext i1 %34 to i8
  store i8 %35, ptr %4, align 1, !tbaa !25
  call void @llvm.lifetime.end.p0(i64 1, ptr %6) #11
  br label %36

36:                                               ; preds = %22, %19
  %37 = getelementptr inbounds nuw %"class.folly::symbolizer::Path", ptr %7, i32 0, i32 2
  %38 = call noundef zeroext i1 @_ZNK5folly5RangeIPKcE5emptyEv(ptr noundef nonnull align 8 dereferenceable(16) %37)
  br i1 %38, label %49, label %39

39:                                               ; preds = %36
  %40 = load i8, ptr %4, align 1, !tbaa !25, !range !27, !noundef !28
  %41 = trunc i8 %40 to i1
  %42 = zext i1 %41 to i64
  %43 = load i64, ptr %3, align 8, !tbaa !21
  %44 = add i64 %43, %42
  store i64 %44, ptr %3, align 8, !tbaa !21
  %45 = getelementptr inbounds nuw %"class.folly::symbolizer::Path", ptr %7, i32 0, i32 2
  %46 = call noundef i64 @_ZNK5folly5RangeIPKcE4sizeEv(ptr noundef nonnull align 8 dereferenceable(16) %45)
  %47 = load i64, ptr %3, align 8, !tbaa !21
  %48 = add i64 %47, %46
  store i64 %48, ptr %3, align 8, !tbaa !21
  br label %49

49:                                               ; preds = %39, %36
  %50 = load i64, ptr %3, align 8, !tbaa !21
  call void @llvm.lifetime.end.p0(i64 1, ptr %4) #11
  call void @llvm.lifetime.end.p0(i64 8, ptr %3) #11
  ret i64 %50
}