; Function Attrs: mustprogress nofree norecurse nosync nounwind willreturn memory(read, inaccessiblemem: none) uwtable
define noundef i64 @_ZNK5folly10symbolizer4Path4sizeEv(ptr noundef nonnull readonly align 8 captures(none) dereferenceable(48) %0) local_unnamed_addr #2 align 2 {
  %2 = load ptr, ptr %0, align 8, !tbaa !13
  %3 = getelementptr inbounds nuw i8, ptr %0, i64 8
  %4 = load ptr, ptr %3, align 8, !tbaa !15
  %5 = icmp eq ptr %2, %4
  br i1 %5, label %13, label %_ZNK5folly5RangeIPKcE8endsWithERS1_.exit

_ZNK5folly5RangeIPKcE8endsWithERS1_.exit:         ; preds = %1
  %6 = ptrtoint ptr %4 to i64
  %7 = ptrtoint ptr %2 to i64
  %8 = sub i64 %6, %7
  %9 = getelementptr inbounds i8, ptr %4, i64 -1
  %10 = load i8, ptr %9, align 1, !tbaa !16
  %11 = icmp ne i8 %10, 47
  %12 = zext i1 %11 to i8
  br label %13

13:                                               ; preds = %_ZNK5folly5RangeIPKcE8endsWithERS1_.exit, %1
  %.08 = phi i64 [ 0, %1 ], [ %8, %_ZNK5folly5RangeIPKcE8endsWithERS1_.exit ]
  %.0 = phi i8 [ 0, %1 ], [ %12, %_ZNK5folly5RangeIPKcE8endsWithERS1_.exit ]
  %14 = getelementptr inbounds nuw i8, ptr %0, i64 16
  %15 = load ptr, ptr %14, align 8, !tbaa !13
  %16 = getelementptr inbounds nuw i8, ptr %0, i64 24
  %17 = load ptr, ptr %16, align 8, !tbaa !15
  %18 = icmp eq ptr %15, %17
  br i1 %18, label %29, label %_ZNK5folly5RangeIPKcE8endsWithERS1_.exit10

_ZNK5folly5RangeIPKcE8endsWithERS1_.exit10:       ; preds = %13
  %19 = zext nneg i8 %.0 to i64
  %20 = ptrtoint ptr %17 to i64
  %21 = ptrtoint ptr %15 to i64
  %22 = add i64 %.08, %19
  %23 = sub i64 %22, %21
  %24 = add i64 %23, %20
  %25 = getelementptr inbounds i8, ptr %17, i64 -1
  %26 = load i8, ptr %25, align 1, !tbaa !16
  %27 = icmp ne i8 %26, 47
  %28 = zext i1 %27 to i8
  br label %29

29:                                               ; preds = %_ZNK5folly5RangeIPKcE8endsWithERS1_.exit10, %13
  %.19 = phi i64 [ %.08, %13 ], [ %24, %_ZNK5folly5RangeIPKcE8endsWithERS1_.exit10 ]
  %.1 = phi i8 [ %.0, %13 ], [ %28, %_ZNK5folly5RangeIPKcE8endsWithERS1_.exit10 ]
  %30 = getelementptr inbounds nuw i8, ptr %0, i64 32
  %31 = load ptr, ptr %30, align 8, !tbaa !13
  %32 = getelementptr inbounds nuw i8, ptr %0, i64 40
  %33 = load ptr, ptr %32, align 8, !tbaa !15
  %34 = icmp eq ptr %31, %33
  %35 = zext nneg i8 %.1 to i64
  %36 = ptrtoint ptr %33 to i64
  %37 = ptrtoint ptr %31 to i64
  %38 = add i64 %.19, %35
  %39 = sub i64 %38, %37
  %40 = add i64 %39, %36
  %.2 = select i1 %34, i64 %.19, i64 %40
  ret i64 %.2
}